; Function Attrs: nounwind uwtable
define noalias nonnull ptr @l_Lean_PersistentHashMap_foldlM___at_Lean_PersistentHashMap_forIn___spec__1___boxed(ptr noundef readnone captures(none) %0, ptr noundef readnone captures(none) %1, ptr noundef readnone captures(none) %2, ptr noundef readnone captures(none) %3, ptr noundef %4, ptr noundef %5) local_unnamed_addr #2 {
  tail call void @lean_inc_heartbeat() #7
  %7 = tail call noalias ptr @mi_malloc_small(i64 noundef 24) #7
  %8 = icmp eq ptr %7, null
  br i1 %8, label %9, label %l_Lean_PersistentHashMap_foldlM___at_Lean_PersistentHashMap_forIn___spec__1.exit

9:                                                ; preds = %6
  tail call void @lean_internal_panic_out_of_memory() #8
  unreachable

l_Lean_PersistentHashMap_foldlM___at_Lean_PersistentHashMap_forIn___spec__1.exit: ; preds = %6
  %10 = getelementptr inbounds nuw i8, ptr %7, i64 4
  store i32 1, ptr %7, align 4, !tbaa !4
  store i32 -184549352, ptr %10, align 4
  %11 = getelementptr inbounds nuw i8, ptr %7, i64 8
  store ptr @l_Lean_PersistentHashMap_foldlM___at_Lean_PersistentHashMap_forIn___spec__1___rarg, ptr %11, align 8, !tbaa !9
  %12 = getelementptr inbounds nuw i8, ptr %7, i64 16
  store i16 4, ptr %12, align 8, !tbaa !14
  %13 = getelementptr inbounds nuw i8, ptr %7, i64 18
  store i16 0, ptr %13, align 2, !tbaa !14
  %14 = ptrtoint ptr %5 to i64
  %15 = and i64 %14, 1
  %.not = icmp eq i64 %15, 0
  br i1 %.not, label %16, label %lean_dec.exit9

16:                                               ; preds = %l_Lean_PersistentHashMap_foldlM___at_Lean_PersistentHashMap_forIn___spec__1.exit
  %17 = load i32, ptr %5, align 4, !tbaa !4
  %18 = icmp sgt i32 %17, 1
  br i1 %18, label %19, label %21, !prof !11

19:                                               ; preds = %16
  %20 = add nsw i32 %17, -1
  store i32 %20, ptr %5, align 4, !tbaa !4
  br label %lean_dec.exit9

21:                                               ; preds = %16
  %.not.i = icmp eq i32 %17, 0
  br i1 %.not.i, label %lean_dec.exit9, label %22

22:                                               ; preds = %21
  tail call void @lean_dec_ref_cold(ptr noundef nonnull %5) #7
  br label %lean_dec.exit9

lean_dec.exit9:                                   ; preds = %22, %21, %19, %l_Lean_PersistentHashMap_foldlM___at_Lean_PersistentHashMap_forIn___spec__1.exit
  %23 = ptrtoint ptr %4 to i64
  %24 = and i64 %23, 1
  %.not12 = icmp eq i64 %24, 0
  br i1 %.not12, label %25, label %lean_dec.exit

25:                                               ; preds = %lean_dec.exit9
  %26 = load i32, ptr %4, align 4, !tbaa !4
  %27 = icmp sgt i32 %26, 1
  br i1 %27, label %28, label %30, !prof !11

28:                                               ; preds = %25
  %29 = add nsw i32 %26, -1
  store i32 %29, ptr %4, align 4, !tbaa !4
  br label %lean_dec.exit

30:                                               ; preds = %25
  %.not.i10 = icmp eq i32 %26, 0
  br i1 %.not.i10, label %lean_dec.exit, label %31

31:                                               ; preds = %30
  tail call void @lean_dec_ref_cold(ptr noundef nonnull %4) #7
  br label %lean_dec.exit

lean_dec.exit:                                    ; preds = %31, %30, %28, %lean_dec.exit9
  ret ptr %7
}